target datalayout = "e-m:e-p270:32:32-p271:32:32-p272:64:64-i64:64-i128:128-f80:128-n8:16:32:64-S128"
target triple = "x86_64-pc-linux-gnu"

%class.JfrTraceIdKlassQueue = type { ptr }
%class.JfrEpochQueue = type { ptr }
%class.JfrEpochStorageHost = type { ptr }

; Function Attrs: mustprogress nounwind uwtable
define linkonce_odr hidden void @_ZN19JfrEpochStorageHostI9JfrBuffer24JfrMspaceRemoveRetrievalLb0EED2Ev(ptr noundef nonnull align 8 dereferenceable(8) %0) unnamed_addr #1 comdat align 2 {
  %2 = alloca ptr, align 8
  store ptr %0, ptr %2, align 8
  %3 = load ptr, ptr %2, align 8
  %4 = getelementptr inbounds %class.JfrEpochStorageHost, ptr %3, i32 0, i32 0
  %5 = load ptr, ptr %4, align 8
  %6 = icmp eq ptr %5, null
  br i1 %6, label %8, label %7

7:                                                ; preds = %1
  call void @_ZN14JfrMemorySpaceI19JfrEpochStorageHostI9JfrBuffer24JfrMspaceRemoveRetrievalLb0EES2_18JfrConcurrentQueueIS1_11JfrCHeapObjE13JfrLinkedListIS1_S5_ELb1EED2Ev(ptr noundef nonnull align 8 dereferenceable(472) %5) #8
  call void @_ZN11JfrCHeapObjdlEPvm(ptr noundef %5, i64 noundef 472) #8
  br label %8

8:                                                ; preds = %7, %1
  ret void
}

; Function Attrs: mustprogress nounwind uwtable
define linkonce_odr hidden void @_ZN13JfrEpochQueueI24JfrEpochQueueKlassPolicyED2Ev(ptr noundef nonnull align 8 dereferenceable(8) %0) unnamed_addr #1 comdat align 2 {
  %2 = alloca ptr, align 8
  store ptr %0, ptr %2, align 8
  %3 = load ptr, ptr %2, align 8
  %4 = getelementptr inbounds %class.JfrEpochQueue, ptr %3, i32 0, i32 0
  %5 = load ptr, ptr %4, align 8
  %6 = icmp eq ptr %5, null
  br i1 %6, label %8, label %7

7:                                                ; preds = %1
  call void @_ZN19JfrEpochStorageHostI9JfrBuffer24JfrMspaceRemoveRetrievalLb0EED2Ev(ptr noundef nonnull align 8 dereferenceable(8) %5) #8
  call void @_ZN11JfrCHeapObjdlEPvm(ptr noundef %5, i64 noundef 8) #8
  br label %8

8:                                                ; preds = %7, %1
  ret void
}

; Function Attrs: mustprogress nounwind uwtable
define hidden void @_ZN20JfrTraceIdKlassQueueD2Ev(ptr noundef nonnull align 8 dereferenceable(8) %0) unnamed_addr #1 align 2 {
  %2 = alloca ptr, align 8
  store ptr %0, ptr %2, align 8
  %3 = load ptr, ptr %2, align 8
  %4 = getelementptr inbounds %class.JfrTraceIdKlassQueue, ptr %3, i32 0, i32 0
  %5 = load ptr, ptr %4, align 8
  %6 = icmp eq ptr %5, null
  br i1 %6, label %8, label %7

7:                                                ; preds = %1
  call void @_ZN13JfrEpochQueueI24JfrEpochQueueKlassPolicyED2Ev(ptr noundef nonnull align 8 dereferenceable(8) %5) #8
  call void @_ZN11JfrCHeapObjdlEPvm(ptr noundef %5, i64 noundef 8) #8
  br label %8

8:                                                ; preds = %7, %1
  ret void
}