; Function Attrs: mustprogress nounwind uwtable
define hidden void @_ZN20JfrTraceIdKlassQueueD2Ev(ptr nocapture noundef nonnull readonly align 8 dereferenceable(8) %0) unnamed_addr #1 align 2 {
  %2 = load ptr, ptr %0, align 8
  %3 = icmp eq ptr %2, null
  br i1 %3, label %11, label %4

4:                                                ; preds = %1
  %5 = load ptr, ptr %2, align 8
  %6 = icmp eq ptr %5, null
  br i1 %6, label %_ZN13JfrEpochQueueI24JfrEpochQueueKlassPolicyED2Ev.exit, label %7

7:                                                ; preds = %4
  %8 = load ptr, ptr %5, align 8
  %9 = icmp eq ptr %8, null
  br i1 %9, label %_ZN19JfrEpochStorageHostI9JfrBuffer24JfrMspaceRemoveRetrievalLb0EED2Ev.exit.i, label %10

10:                                               ; preds = %7
  tail call void @_ZN14JfrMemorySpaceI19JfrEpochStorageHostI9JfrBuffer24JfrMspaceRemoveRetrievalLb0EES2_18JfrConcurrentQueueIS1_11JfrCHeapObjE13JfrLinkedListIS1_S5_ELb1EED2Ev(ptr noundef nonnull align 8 dereferenceable(472) %8) #11
  tail call void @_ZN11JfrCHeapObjdlEPvm(ptr noundef nonnull %8, i64 noundef 472) #11
  br label %_ZN19JfrEpochStorageHostI9JfrBuffer24JfrMspaceRemoveRetrievalLb0EED2Ev.exit.i

_ZN19JfrEpochStorageHostI9JfrBuffer24JfrMspaceRemoveRetrievalLb0EED2Ev.exit.i: ; preds = %10, %7
  tail call void @_ZN11JfrCHeapObjdlEPvm(ptr noundef nonnull %5, i64 noundef 8) #11
  br label %_ZN13JfrEpochQueueI24JfrEpochQueueKlassPolicyED2Ev.exit

_ZN13JfrEpochQueueI24JfrEpochQueueKlassPolicyED2Ev.exit: ; preds = %4, %_ZN19JfrEpochStorageHostI9JfrBuffer24JfrMspaceRemoveRetrievalLb0EED2Ev.exit.i
  tail call void @_ZN11JfrCHeapObjdlEPvm(ptr noundef nonnull %2, i64 noundef 8) #11
  br label %11

11:                                               ; preds = %_ZN13JfrEpochQueueI24JfrEpochQueueKlassPolicyED2Ev.exit, %1
  ret void
}